Certificate:
    Data:
        Version: 3 (0x2)
        Serial Number: 4096 (0x1000)
    Signature Algorithm: md5WithRSAEncryption
        Issuer: C=US, ST=Utah, L=SLC, O=MSD, OU=msd, CN=CA/emailAddress=hello@yahoo.com
        Validity
            Not Before: Apr  2 17:16:33 2021 GMT
            Not After : Apr  2 17:16:33 2022 GMT
        Subject: C=US, ST=Utah, O=MSD, OU=msd, CN=client/emailAddress=hello@yahoo.com
        Subject Public Key Info:
            Public Key Algorithm: rsaEncryption
                Public-Key: (4096 bit)
                Modulus:
                    00:cb:7e:be:30:ff:c6:4c:c6:a5:7e:70:6f:66:ac:
                    c1:c8:d7:51:51:f2:b3:2a:7e:9d:62:43:1e:71:f3:
                    56:0a:67:65:a4:99:43:c7:af:70:dc:96:ae:c6:5f:
                    ee:db:f9:ca:47:bd:28:b5:78:a1:48:a9:e8:cc:ab:
                    43:49:07:21:8d:14:71:b2:8a:43:62:70:cf:71:1c:
                    42:2d:cd:c4:77:46:de:2c:95:28:44:20:61:2e:91:
                    96:39:06:f6:f8:b6:37:3c:1b:c4:a8:36:10:3f:66:
                    c7:54:e8:04:6f:26:43:70:f6:3b:b9:da:e1:03:e5:
                    84:ef:ef:14:b4:fd:f5:59:6d:df:09:46:c3:af:03:
                    c1:29:1d:08:4e:0b:78:0a:f3:5b:f8:d7:0c:d9:24:
                    81:8f:fa:c2:e4:7a:b9:1e:29:7b:07:6c:fa:d0:0b:
                    4a:d6:0d:95:82:ee:24:40:fa:99:fa:5c:df:28:7f:
                    e9:42:9d:77:47:db:c8:39:b7:0e:5f:ee:f2:07:e1:
                    ba:c5:a4:8d:95:a8:8a:90:4d:b7:e3:06:9e:b6:f6:
                    52:1a:65:5e:a2:a0:b1:1b:93:13:9a:2c:b9:71:79:
                    96:ff:42:13:85:f0:1a:53:56:26:c9:3f:e3:d0:40:
                    d0:d5:e0:f2:fc:ba:8c:4b:8b:ec:93:62:56:9b:37:
                    91:b2:05:0b:33:60:e5:34:2b:b3:7e:17:56:55:68:
                    32:91:fd:65:76:47:34:81:cf:bc:c9:50:de:10:a2:
                    4a:bc:19:da:c6:7a:e3:2e:36:1f:8a:d3:57:21:21:
                    46:90:6b:0f:04:5c:ab:6c:a6:e6:bf:1f:e7:2a:8d:
                    b7:9f:ed:a1:3d:1b:c7:d3:f3:2a:88:4b:18:c8:95:
                    31:06:1b:ec:92:c5:28:86:67:dc:1d:45:99:60:5a:
                    5a:36:28:3c:3b:6c:7b:b4:27:e4:ff:5f:d2:1e:86:
                    4e:e4:62:66:ab:05:d5:86:36:0a:f8:93:fb:76:02:
                    91:59:2c:05:94:51:de:69:2e:7f:c5:ab:f7:ee:3f:
                    3a:a2:e9:a7:0f:d7:59:a0:1f:8f:5d:42:f7:52:40:
                    f5:6c:68:32:dc:03:e6:96:54:1f:7b:d8:e7:7f:7d:
                    8f:30:4d:fc:e1:83:f4:b5:2e:55:7c:bb:ba:aa:00:
                    60:08:26:22:70:b7:2c:b6:00:09:a5:2a:a8:a8:60:
                    11:71:e7:10:97:99:04:01:16:64:b9:9d:7b:95:b3:
                    14:66:1a:20:7f:47:f9:3f:c5:e2:36:07:7d:47:70:
                    11:1b:a4:bb:88:d2:f4:b0:2a:8d:4e:00:72:c4:08:
                    f9:3c:3e:97:2a:5f:f4:ae:fb:7d:61:7a:df:8f:63:
                    7a:a2:77
                Exponent: 65537 (0x10001)
        X509v3 extensions:
            X509v3 Basic Constraints: 
                CA:FALSE
            Netscape Comment: 
                OpenSSL Generated Certificate
            X509v3 Subject Key Identifier: 
                A3:94:35:AD:87:02:EB:70:79:86:FE:16:35:AB:76:F5:38:E7:72:B1
            X509v3 Authority Key Identifier: 
                DirName:/C=US/ST=Utah/L=SLC/O=MSD/OU=msd/CN=CA/emailAddress=hello@yahoo.com
                serial:F9:B7:9D:CA:D8:38:D1:74

    Signature Algorithm: md5WithRSAEncryption
         18:32:06:07:d2:ca:e7:08:23:78:9a:cf:79:4c:9a:c1:8a:3c:
         bf:14:ae:bf:35:e7:75:ca:6f:1c:2c:64:b6:d5:27:63:15:de:
         8d:e4:1f:a5:be:dd:b9:ae:4a:83:7c:d1:1c:8d:02:09:aa:c2:
         f3:a6:de:68:78:be:75:29:db:c7:31:82:00:91:f2:f3:86:c6:
         55:74:93:ae:76:95:cd:73:f8:88:d4:d5:07:6e:8d:58:4f:7b:
         8f:66:e8:12:07:a6:3f:f4:77:7c:84:54:b9:42:da:3a:d3:8d:
         39:9f:0c:cd:cc:2c:78:26:b7:a8:d9:f6:0a:16:40:38:ef:a4:
         f1:6f:26:f7:d1:ac:08:51:cb:bf:16:6d:44:68:85:58:51:ed:
         15:43:bf:35:ea:a0:cb:12:82:5f:cc:e6:3d:80:55:36:9d:85:
         26:ec:1e:70:af:ed:b3:56:04:2d:7a:eb:c7:82:dd:0f:b5:5c:
         31:c3:0a:2c:d5:dd:cb:c5:fd:73:9b:13:fa:79:b5:69:d5:27:
         81:fc:0f:6f:15:b9:c8:3a:55:c9:6d:a6:b2:09:bc:75:2f:ac:
         fd:f3:11:34:61:ed:6b:08:dc:98:d9:83:21:d1:d5:f9:2a:65:
         62:9a:7a:5e:5e:8c:ae:1c:d4:e9:00:89:a9:75:8b:88:c0:dd:
         9f:5f:89:a4:16:04:f1:04:96:37:71:61:0a:f4:85:55:b3:e4:
         f5:5c:47:b2:d8:2c:fe:a6:84:ae:6b:f5:bc:33:7c:c9:a9:6d:
         1e:0b:db:1e:ba:bf:d6:74:09:51:93:d6:5e:e3:17:c2:2c:23:
         90:a7:8c:91:0f:58:e2:23:13:30:78:65:7b:2f:dc:bb:c7:8a:
         63:2d:12:02:31:e1:71:e0:71:fc:63:00:9c:e1:53:a0:40:d7:
         a0:0f:1e:26:43:ea:e8:a5:75:51:a9:f4:82:54:ee:25:62:58:
         90:26:07:4c:d2:7d:70:d0:4a:0d:5d:bf:8d:f7:bb:e2:de:61:
         b5:e5:0f:37:08:15:32:cf:c6:a1:7e:83:45:98:da:41:5d:59:
         da:98:3a:4f:ee:c4:3b:e1:49:61:6f:0e:20:2d:60:1b:f4:02:
         7b:e3:32:cc:6b:e7:08:f3:a1:a8:cb:d0:4b:4d:0d:a3:5d:44:
         4f:c7:31:64:69:2d:ac:2e:84:a2:a6:4b:ae:61:63:29:af:a4:
         d3:20:08:68:d3:91:2d:9f:34:2a:4f:16:d3:99:ba:1c:ac:1c:
         cb:a1:c9:b1:b7:f3:fa:d0:a0:52:2f:22:ca:08:8a:d6:b9:9f:
         51:98:a6:74:9f:6d:25:5e:56:58:f8:2c:ad:ce:32:d7:d8:2d:
         42:83:a7:50:32:fe:69:44
-----BEGIN CERTIFICATE-----
MIIGRjCCBC6gAwIBAgICEAAwDQYJKoZIhvcNAQEEBQAwczELMAkGA1UEBhMCVVMx
DTALBgNVBAgMBFV0YWgxDDAKBgNVBAcMA1NMQzEMMAoGA1UECgwDTVNEMQwwCgYD
VQQLDANtc2QxCzAJBgNVBAMMAkNBMR4wHAYJKoZIhvcNAQkBFg9oZWxsb0B5YWhv
by5jb20wHhcNMjEwNDAyMTcxNjMzWhcNMjIwNDAyMTcxNjMzWjBpMQswCQYDVQQG
EwJVUzENMAsGA1UECAwEVXRhaDEMMAoGA1UECgwDTVNEMQwwCgYDVQQLDANtc2Qx
DzANBgNVBAMMBmNsaWVudDEeMBwGCSqGSIb3DQEJARYPaGVsbG9AeWFob28uY29t
MIICIjANBgkqhkiG9w0BAQEFAAOCAg8AMIICCgKCAgEAy36+MP/GTMalfnBvZqzB
yNdRUfKzKn6dYkMecfNWCmdlpJlDx69w3Jauxl/u2/nKR70otXihSKnozKtDSQch
jRRxsopDYnDPcRxCLc3Ed0beLJUoRCBhLpGWOQb2+LY3PBvEqDYQP2bHVOgEbyZD
cPY7udrhA+WE7+8UtP31WW3fCUbDrwPBKR0ITgt4CvNb+NcM2SSBj/rC5Hq5Hil7
B2z60AtK1g2Vgu4kQPqZ+lzfKH/pQp13R9vIObcOX+7yB+G6xaSNlaiKkE234wae
tvZSGmVeoqCxG5MTmiy5cXmW/0IThfAaU1YmyT/j0EDQ1eDy/LqMS4vsk2JWmzeR
sgULM2DlNCuzfhdWVWgykf1ldkc0gc+8yVDeEKJKvBnaxnrjLjYfitNXISFGkGsP
BFyrbKbmvx/nKo23n+2hPRvH0/MqiEsYyJUxBhvsksUohmfcHUWZYFpaNig8O2x7
tCfk/1/SHoZO5GJmqwXVhjYK+JP7dgKRWSwFlFHeaS5/xav37j86oumnD9dZoB+P
XUL3UkD1bGgy3APmllQfe9jnf32PME384YP0tS5VfLu6qgBgCCYicLcstgAJpSqo
qGARcecQl5kEARZkuZ17lbMUZhogf0f5P8XiNgd9R3ARG6S7iNL0sCqNTgByxAj5
PD6XKl/0rvt9YXrfj2N6oncCAwEAAaOB7TCB6jAJBgNVHRMEAjAAMCwGCWCGSAGG
+EIBDQQfFh1PcGVuU1NMIEdlbmVyYXRlZCBDZXJ0aWZpY2F0ZTAdBgNVHQ4EFgQU
o5Q1rYcC63B5hv4WNat29TjncrEwgY8GA1UdIwSBhzCBhKF3pHUwczELMAkGA1UE
BhMCVVMxDTALBgNVBAgMBFV0YWgxDDAKBgNVBAcMA1NMQzEMMAoGA1UECgwDTVNE
MQwwCgYDVQQLDANtc2QxCzAJBgNVBAMMAkNBMR4wHAYJKoZIhvcNAQkBFg9oZWxs
b0B5YWhvby5jb22CCQD5t53K2DjRdDANBgkqhkiG9w0BAQQFAAOCAgEAGDIGB9LK
5wgjeJrPeUyawYo8vxSuvzXndcpvHCxkttUnYxXejeQfpb7dua5Kg3zRHI0CCarC
86beaHi+dSnbxzGCAJHy84bGVXSTrnaVzXP4iNTVB26NWE97j2boEgemP/R3fIRU
uULaOtONOZ8MzcwseCa3qNn2ChZAOO+k8W8m99GsCFHLvxZtRGiFWFHtFUO/Neqg
yxKCX8zmPYBVNp2FJuwecK/ts1YELXrrx4LdD7VcMcMKLNXdy8X9c5sT+nm1adUn
gfwPbxW5yDpVyW2msgm8dS+s/fMRNGHtawjcmNmDIdHV+SplYpp6Xl6MrhzU6QCJ
qXWLiMDdn1+JpBYE8QSWN3FhCvSFVbPk9VxHstgs/qaErmv1vDN8yaltHgvbHrq/
1nQJUZPWXuMXwiwjkKeMkQ9Y4iMTMHhley/cu8eKYy0SAjHhceBx/GMAnOFToEDX
oA8eJkPq6KV1Uan0glTuJWJYkCYHTNJ9cNBKDV2/jfe74t5hteUPNwgVMs/GoX6D
RZjaQV1Z2pg6T+7EO+FJYW8OIC1gG/QCe+MyzGvnCPOhqMvQS00No11ET8cxZGkt
rC6EoqZLrmFjKa+k0yAIaNORLZ80Kk8W05m6HKwcy6HJsbfz+tCgUi8iygiK1rmf
UZimdJ9tJV5WWPgsrc4y19gtQoOnUDL+aUQ=
-----END CERTIFICATE-----
