Certificate:
    Data:
        Version: 3 (0x2)
        Serial Number: 4096 (0x1000)
    Signature Algorithm: md5WithRSAEncryption
        Issuer: C=US, ST=Utah, L=SLC, O=MSD, OU=msd, CN=CA/emailAddress=hello@yahoo.com
        Validity
            Not Before: Apr  2 17:13:53 2021 GMT
            Not After : Apr  2 17:13:53 2022 GMT
        Subject: C=US, ST=Utah, O=MSD, OU=msd, CN=server/emailAddress=hello@yahoo.com
        Subject Public Key Info:
            Public Key Algorithm: rsaEncryption
                Public-Key: (4096 bit)
                Modulus:
                    00:ca:f5:fd:96:4f:dd:01:34:27:81:1c:43:84:5d:
                    15:a1:ab:aa:9a:14:2d:8b:13:e1:87:de:47:25:91:
                    55:63:8c:a9:c6:fe:09:04:7c:0b:32:5c:00:48:5b:
                    00:31:1a:66:48:7a:cb:03:60:9b:27:ac:cf:88:20:
                    19:e7:26:59:f9:16:4c:03:dc:97:44:d5:f7:c8:2e:
                    f1:d2:de:1a:8a:23:d1:60:b1:93:b4:f4:0d:cb:77:
                    06:71:27:bf:8a:79:32:15:01:f7:4d:1d:b9:12:ac:
                    b4:c7:e5:c2:c3:4f:5c:25:ed:fe:8c:c9:ec:99:7a:
                    ca:69:e4:2f:e8:39:d5:5b:2e:04:42:3c:fe:a3:ca:
                    e2:73:31:ed:9c:c3:c5:26:9a:dc:22:e3:95:50:24:
                    a9:1e:c4:1a:0c:12:11:de:56:b1:d0:7c:d0:40:d2:
                    0f:46:5d:a7:3d:8c:38:cd:b7:be:ab:97:01:6e:8b:
                    08:06:fd:17:cf:f7:37:b2:3e:59:56:ad:34:48:70:
                    bc:96:d7:fa:96:8d:cb:21:30:67:25:9e:54:d9:f1:
                    59:ff:09:1d:2f:c2:77:e4:31:01:c9:7b:9e:e5:08:
                    a2:79:b7:10:04:6e:ca:31:d2:09:d4:37:63:bd:96:
                    d2:69:cd:8b:5f:ef:a5:a4:98:c3:57:4f:0f:0a:57:
                    10:0a:6e:7b:b9:dd:42:ac:87:18:5c:6a:49:73:66:
                    db:37:ed:5d:4d:fa:e2:ce:98:4f:42:b9:b0:1d:e1:
                    a4:03:c2:ad:d3:8a:d4:d8:36:2a:38:c8:3c:cc:ee:
                    84:06:02:9b:4e:91:a0:b2:01:f4:a8:10:c2:8f:f7:
                    ab:e8:0b:a7:e0:39:66:7b:a1:0f:5d:56:13:9e:6e:
                    3b:d2:a5:fc:fd:08:7d:2c:87:b3:53:0a:07:79:d3:
                    39:10:72:ba:9d:a5:2a:4b:ae:ac:13:2a:f9:e4:db:
                    f4:c4:f3:3f:46:a1:b1:53:b8:a2:c3:99:01:3b:29:
                    a4:41:d8:5e:52:26:34:0c:44:41:14:55:6b:81:1c:
                    1c:ce:00:39:f9:be:01:1d:c1:e8:86:74:c7:9a:2f:
                    77:a2:a4:a7:b8:98:43:33:9e:6e:7d:4f:40:6c:b9:
                    00:a1:79:96:c5:7b:7b:d8:70:b2:84:2d:62:eb:79:
                    ac:98:72:a8:50:fb:bf:74:d9:3f:cf:5b:ab:34:c7:
                    8b:89:a8:89:6e:cd:1e:f6:ca:73:c5:11:29:8f:e2:
                    af:4a:21:b5:ce:67:95:95:ec:82:db:09:9c:a0:6c:
                    92:a8:80:fc:9f:75:39:8b:67:0f:36:0f:d3:83:a3:
                    60:30:fd:c2:c6:ab:90:38:51:3b:1a:45:3b:c1:17:
                    f5:07:83
                Exponent: 65537 (0x10001)
        X509v3 extensions:
            X509v3 Basic Constraints: 
                CA:FALSE
            Netscape Comment: 
                OpenSSL Generated Certificate
            X509v3 Subject Key Identifier: 
                9B:52:C6:A0:1F:5E:1F:EF:77:32:B8:15:FF:A0:A4:E3:C0:71:98:EB
            X509v3 Authority Key Identifier: 
                DirName:/C=US/ST=Utah/L=SLC/O=MSD/OU=msd/CN=CA/emailAddress=hello@yahoo.com
                serial:F9:B7:9D:CA:D8:38:D1:74

    Signature Algorithm: md5WithRSAEncryption
         63:39:d4:3b:f4:c4:71:61:70:8d:d5:cc:f0:ee:9c:cf:ec:b4:
         2b:77:29:a8:8e:83:9a:0c:c4:48:f7:8f:88:7c:4b:5e:b2:fa:
         6f:ff:80:ac:ab:b8:f1:e4:7f:58:af:78:27:fe:0c:66:48:77:
         f6:90:0a:f8:f9:0a:a5:1d:95:09:00:91:d7:17:ee:78:93:c4:
         36:29:25:16:fb:f9:13:7a:b4:79:9e:4a:76:dd:1b:73:b4:76:
         f7:2e:a8:80:94:87:c9:41:52:b6:67:8e:70:9a:37:76:da:36:
         3c:b9:d5:62:8a:3c:72:0f:a0:7d:95:59:eb:fd:9f:ac:33:86:
         17:ff:8e:93:14:43:e9:f2:a6:36:f6:6b:2e:a9:04:84:b3:1a:
         73:10:5b:6f:37:a9:2b:d0:47:38:6c:36:b6:42:06:04:08:38:
         4b:8f:e3:af:76:ea:92:27:48:3d:ad:c7:51:c3:4e:54:05:fa:
         c7:bc:de:3e:98:72:29:8e:bd:9c:0d:30:16:83:cb:f2:e0:74:
         b2:be:85:16:6d:3d:3d:aa:62:49:13:4e:df:77:08:0f:a7:33:
         51:44:7c:45:c6:d5:57:ac:cd:72:18:61:70:97:92:70:8b:cf:
         e5:71:bc:06:fe:1b:5c:d2:a7:c6:a5:63:db:d3:73:c4:6c:8c:
         b8:96:ac:cc:3a:2b:85:ef:9d:6a:0b:5d:b2:6c:f1:ce:27:50:
         68:16:92:fa:d9:75:54:7b:16:14:c8:17:52:c6:bb:04:a5:e4:
         d7:3d:d4:df:2d:b9:74:18:dc:8d:0d:6e:49:8e:f6:d5:35:14:
         ad:6a:62:14:a6:f9:b9:75:69:68:b8:25:3a:9a:68:48:34:96:
         c3:73:62:a1:d8:67:0b:b1:ad:ae:03:50:b3:e6:22:bd:6a:4c:
         a0:ff:2a:e9:60:55:c3:6c:67:de:59:19:d7:a2:46:33:b6:2b:
         8a:6c:2b:dd:5b:df:bd:33:4e:8d:60:f7:db:d8:ce:41:61:1b:
         50:8a:48:53:ba:46:57:c7:f5:ec:90:f8:f5:f7:de:f5:28:a1:
         c5:4b:e6:eb:da:57:1d:b6:18:72:2b:6f:17:d3:74:d4:2a:58:
         73:1e:f4:56:08:16:2d:41:16:97:45:e6:03:db:f1:0e:b1:74:
         f1:1f:bb:89:84:90:19:61:9a:7b:e1:87:f3:fd:c0:7e:bf:31:
         e7:f7:2b:b1:ad:7e:4d:c1:b7:da:53:7c:d7:55:d4:48:e9:e3:
         73:d6:77:4d:57:40:d1:3f:90:6f:3c:13:51:a8:91:b4:2e:8f:
         ad:e3:c1:78:65:a8:8f:89:de:1a:f2:04:f0:7e:11:05:60:92:
         07:1d:0f:1a:0e:79:73:97
-----BEGIN CERTIFICATE-----
MIIGRjCCBC6gAwIBAgICEAAwDQYJKoZIhvcNAQEEBQAwczELMAkGA1UEBhMCVVMx
DTALBgNVBAgMBFV0YWgxDDAKBgNVBAcMA1NMQzEMMAoGA1UECgwDTVNEMQwwCgYD
VQQLDANtc2QxCzAJBgNVBAMMAkNBMR4wHAYJKoZIhvcNAQkBFg9oZWxsb0B5YWhv
by5jb20wHhcNMjEwNDAyMTcxMzUzWhcNMjIwNDAyMTcxMzUzWjBpMQswCQYDVQQG
EwJVUzENMAsGA1UECAwEVXRhaDEMMAoGA1UECgwDTVNEMQwwCgYDVQQLDANtc2Qx
DzANBgNVBAMMBnNlcnZlcjEeMBwGCSqGSIb3DQEJARYPaGVsbG9AeWFob28uY29t
MIICIjANBgkqhkiG9w0BAQEFAAOCAg8AMIICCgKCAgEAyvX9lk/dATQngRxDhF0V
oauqmhQtixPhh95HJZFVY4ypxv4JBHwLMlwASFsAMRpmSHrLA2CbJ6zPiCAZ5yZZ
+RZMA9yXRNX3yC7x0t4aiiPRYLGTtPQNy3cGcSe/inkyFQH3TR25Eqy0x+XCw09c
Je3+jMnsmXrKaeQv6DnVWy4EQjz+o8riczHtnMPFJprcIuOVUCSpHsQaDBIR3lax
0HzQQNIPRl2nPYw4zbe+q5cBbosIBv0Xz/c3sj5ZVq00SHC8ltf6lo3LITBnJZ5U
2fFZ/wkdL8J35DEByXue5QiiebcQBG7KMdIJ1DdjvZbSac2LX++lpJjDV08PClcQ
Cm57ud1CrIcYXGpJc2bbN+1dTfrizphPQrmwHeGkA8Kt04rU2DYqOMg8zO6EBgKb
TpGgsgH0qBDCj/er6Aun4Dlme6EPXVYTnm470qX8/Qh9LIezUwoHedM5EHK6naUq
S66sEyr55Nv0xPM/RqGxU7iiw5kBOymkQdheUiY0DERBFFVrgRwczgA5+b4BHcHo
hnTHmi93oqSnuJhDM55ufU9AbLkAoXmWxXt72HCyhC1i63msmHKoUPu/dNk/z1ur
NMeLiaiJbs0e9spzxREpj+KvSiG1zmeVleyC2wmcoGySqID8n3U5i2cPNg/Tg6Ng
MP3CxquQOFE7GkU7wRf1B4MCAwEAAaOB7TCB6jAJBgNVHRMEAjAAMCwGCWCGSAGG
+EIBDQQfFh1PcGVuU1NMIEdlbmVyYXRlZCBDZXJ0aWZpY2F0ZTAdBgNVHQ4EFgQU
m1LGoB9eH+93MrgV/6Ck48BxmOswgY8GA1UdIwSBhzCBhKF3pHUwczELMAkGA1UE
BhMCVVMxDTALBgNVBAgMBFV0YWgxDDAKBgNVBAcMA1NMQzEMMAoGA1UECgwDTVNE
MQwwCgYDVQQLDANtc2QxCzAJBgNVBAMMAkNBMR4wHAYJKoZIhvcNAQkBFg9oZWxs
b0B5YWhvby5jb22CCQD5t53K2DjRdDANBgkqhkiG9w0BAQQFAAOCAgEAYznUO/TE
cWFwjdXM8O6cz+y0K3cpqI6DmgzESPePiHxLXrL6b/+ArKu48eR/WK94J/4MZkh3
9pAK+PkKpR2VCQCR1xfueJPENiklFvv5E3q0eZ5Kdt0bc7R29y6ogJSHyUFStmeO
cJo3dto2PLnVYoo8cg+gfZVZ6/2frDOGF/+OkxRD6fKmNvZrLqkEhLMacxBbbzep
K9BHOGw2tkIGBAg4S4/jr3bqkidIPa3HUcNOVAX6x7zePphyKY69nA0wFoPL8uB0
sr6FFm09PapiSRNO33cID6czUUR8RcbVV6zNchhhcJeScIvP5XG8Bv4bXNKnxqVj
29NzxGyMuJaszDorhe+dagtdsmzxzidQaBaS+tl1VHsWFMgXUsa7BKXk1z3U3y25
dBjcjQ1uSY721TUUrWpiFKb5uXVpaLglOppoSDSWw3NiodhnC7GtrgNQs+YivWpM
oP8q6WBVw2xn3lkZ16JGM7Yrimwr3VvfvTNOjWD329jOQWEbUIpIU7pGV8f17JD4
9ffe9SihxUvm69pXHbYYcitvF9N01CpYcx70VggWLUEWl0XmA9vxDrF08R+7iYSQ
GWGae+GH8/3Afr8x5/crsa1+TcG32lN811XUSOnjc9Z3TVdA0T+QbzwTUaiRtC6P
rePBeGWoj4neGvIE8H4RBWCSBx0PGg55c5c=
-----END CERTIFICATE-----
